target datalayout = "e-m:e-p270:32:32-p271:32:32-p272:64:64-i64:64-i128:128-f80:128-n8:16:32:64-S128"
target triple = "x86_64-pc-linux-gnu"

; Function Attrs: nounwind uwtable
define i32 @Lf_ManTtIsMux(i64 noundef %0) #0 {
  %2 = alloca i32, align 4
  %3 = alloca i64, align 8
  %4 = alloca i32, align 4
  %5 = alloca i32, align 4
  store i64 %0, ptr %3, align 8, !tbaa !53
  call void @llvm.lifetime.start.p0(i64 4, ptr %4) #14
  store i32 0, ptr %4, align 4, !tbaa !26
  br label %6

6:                                                ; preds = %19, %1
  %7 = load i32, ptr %4, align 4, !tbaa !26
  %8 = icmp slt i32 %7, 24
  br i1 %8, label %9, label %22

9:                                                ; preds = %6
  %10 = load i64, ptr %3, align 8, !tbaa !53
  %11 = trunc i64 %10 to i32
  %12 = load i32, ptr %4, align 4, !tbaa !26
  %13 = sext i32 %12 to i64
  %14 = getelementptr inbounds [24 x i32], ptr @Lf_ManTtIsMux.s_Muxes, i64 0, i64 %13
  %15 = load i32, ptr %14, align 4, !tbaa !26
  %16 = icmp eq i32 %11, %15
  br i1 %16, label %17, label %18

17:                                               ; preds = %9
  store i32 1, ptr %2, align 4
  store i32 1, ptr %5, align 4
  br label %23

18:                                               ; preds = %9
  br label %19

19:                                               ; preds = %18
  %20 = load i32, ptr %4, align 4, !tbaa !26
  %21 = add nsw i32 %20, 1
  store i32 %21, ptr %4, align 4, !tbaa !26
  br label %6, !llvm.loop !54

22:                                               ; preds = %6
  store i32 0, ptr %2, align 4
  store i32 1, ptr %5, align 4
  br label %23

23:                                               ; preds = %22, %17
  call void @llvm.lifetime.end.p0(i64 4, ptr %4) #14
  %24 = load i32, ptr %2, align 4
  ret i32 %24
}