; Function Attrs: nofree norecurse nosync nounwind memory(none) uwtable
define range(i32 0, 2) i32 @Lf_ManTtIsMux(i64 noundef %0) local_unnamed_addr #4 {
  %2 = trunc i64 %0 to i32
  br label %4

3:                                                ; preds = %4
  %indvars.iv.next = add nuw nsw i64 %indvars.iv, 1
  %exitcond.not = icmp eq i64 %indvars.iv.next, 24
  br i1 %exitcond.not, label %8, label %4, !llvm.loop !48

4:                                                ; preds = %1, %3
  %indvars.iv = phi i64 [ 0, %1 ], [ %indvars.iv.next, %3 ]
  %5 = getelementptr inbounds nuw [24 x i32], ptr @Lf_ManTtIsMux.s_Muxes, i64 0, i64 %indvars.iv
  %6 = load i32, ptr %5, align 4, !tbaa !40
  %7 = icmp eq i32 %6, %2
  br i1 %7, label %8, label %3

8:                                                ; preds = %3, %4
  %.05 = phi i32 [ 1, %4 ], [ 0, %3 ]
  ret i32 %.05
}